target datalayout = "e-m:e-p270:32:32-p271:32:32-p272:64:64-i64:64-i128:128-f80:128-n8:16:32:64-S128"
target triple = "x86_64-pc-linux-gnu"

%struct.jit_State = type { %struct.GCtrace, ptr, ptr, ptr, ptr, ptr, ptr, i32, i32, i32, i8, i8, %struct.IRType1, i8, %struct.FoldState, ptr, i32, i32, i32, i32, i32, i32, i32, [1 x i32], [5 x %union.TValue], [3 x %union.TValue], ptr, i32, i32, i32, i32, ptr, ptr, i32, i32, i8, ptr, i32, i32, i16, [101 x i16], [258 x i32], [15 x i32], [16 x ptr], [64 x %struct.HotPenalty], i32, [16 x %struct.BPropEntry], i32, %struct.ScEvEntry, ptr, i32, i32, i32, ptr, i32, i32, ptr, ptr, ptr, i64, i64, %union.TValue, ptr, i32, i32 }
%struct.GCtrace = type { %struct.GCRef, i8, i8, i16, i32, i32, %struct.GCRef, ptr, i32, i32, ptr, ptr, %struct.GCRef, %struct.MRef, i32, i32, ptr, i32, i16, i16, i16, i16, i16, i16, i16, i8, i8, i8, i8 }
%struct.GCRef = type { i64 }
%struct.MRef = type { i64 }
%struct.IRType1 = type { i8 }
%struct.FoldState = type { %union.IRIns, [2 x %union.IRIns], [2 x %union.IRIns] }
%union.IRIns = type { %struct.GCRef }
%struct.HotPenalty = type { %struct.MRef, i16, i16 }
%struct.BPropEntry = type { i16, i16, i32 }
%struct.ScEvEntry = type { %struct.MRef, i16, i16, i16, i16, %struct.IRType1, i8 }
%union.TValue = type { i64 }
%struct.anon.0 = type { i32, %struct.IRType1, i8, i8, i8 }
%struct.anon = type { i16, i16, i16, i16 }
%struct.GCfuncL = type { %struct.GCRef, i8, i8, i8, i8, %struct.GCRef, %struct.GCRef, %struct.MRef, [1 x %struct.GCRef] }

; Function Attrs: nounwind uwtable
define internal i32 @merge_uref(ptr noundef %0, i32 noundef %1, ptr noundef %2) #0 {
  %4 = alloca i32, align 4
  %5 = alloca ptr, align 8
  %6 = alloca i32, align 4
  %7 = alloca ptr, align 8
  store ptr %0, ptr %5, align 8, !tbaa !4
  store i32 %1, ptr %6, align 4, !tbaa !30
  store ptr %2, ptr %7, align 8, !tbaa !38
  %8 = load ptr, ptr %7, align 8, !tbaa !38
  %9 = getelementptr inbounds nuw %struct.anon.0, ptr %8, i32 0, i32 2
  %10 = load i8, ptr %9, align 1, !tbaa !29
  %11 = zext i8 %10 to i32
  %12 = icmp eq i32 %11, 60
  br i1 %12, label %13, label %122

13:                                               ; preds = %3
  %14 = load ptr, ptr %7, align 8, !tbaa !38
  %15 = getelementptr inbounds nuw %struct.anon.0, ptr %14, i32 0, i32 1
  %16 = getelementptr inbounds nuw %struct.IRType1, ptr %15, i32 0, i32 0
  %17 = load i8, ptr %16, align 4, !tbaa !29
  %18 = zext i8 %17 to i32
  %19 = and i32 %18, 128
  %20 = icmp ne i32 %19, 0
  br i1 %20, label %21, label %122

21:                                               ; preds = %13
  %22 = load i32, ptr %6, align 4, !tbaa !30
  %23 = load ptr, ptr %5, align 8, !tbaa !4
  %24 = getelementptr inbounds nuw %struct.jit_State, ptr %23, i32 0, i32 40
  %25 = getelementptr inbounds [101 x i16], ptr %24, i64 0, i64 17
  %26 = load i16, ptr %25, align 2, !tbaa !35
  %27 = zext i16 %26 to i32
  %28 = icmp ult i32 %22, %27
  br i1 %28, label %29, label %95

29:                                               ; preds = %21
  %30 = load ptr, ptr %5, align 8, !tbaa !4
  %31 = getelementptr inbounds nuw %struct.jit_State, ptr %30, i32 0, i32 40
  %32 = getelementptr inbounds [101 x i16], ptr %31, i64 0, i64 79
  %33 = load i16, ptr %32, align 2, !tbaa !35
  %34 = zext i16 %33 to i32
  %35 = icmp ne i32 %34, 0
  br i1 %35, label %92, label %36

36:                                               ; preds = %29
  %37 = load ptr, ptr %5, align 8, !tbaa !4
  %38 = getelementptr inbounds nuw %struct.jit_State, ptr %37, i32 0, i32 40
  %39 = getelementptr inbounds [101 x i16], ptr %38, i64 0, i64 80
  %40 = load i16, ptr %39, align 2, !tbaa !35
  %41 = zext i16 %40 to i32
  %42 = icmp ne i32 %41, 0
  br i1 %42, label %92, label %43

43:                                               ; preds = %36
  %44 = load ptr, ptr %5, align 8, !tbaa !4
  %45 = getelementptr inbounds nuw %struct.jit_State, ptr %44, i32 0, i32 40
  %46 = getelementptr inbounds [101 x i16], ptr %45, i64 0, i64 81
  %47 = load i16, ptr %46, align 2, !tbaa !35
  %48 = zext i16 %47 to i32
  %49 = icmp ne i32 %48, 0
  br i1 %49, label %92, label %50

50:                                               ; preds = %43
  %51 = load ptr, ptr %5, align 8, !tbaa !4
  %52 = getelementptr inbounds nuw %struct.jit_State, ptr %51, i32 0, i32 40
  %53 = getelementptr inbounds [101 x i16], ptr %52, i64 0, i64 82
  %54 = load i16, ptr %53, align 2, !tbaa !35
  %55 = zext i16 %54 to i32
  %56 = icmp ne i32 %55, 0
  br i1 %56, label %92, label %57

57:                                               ; preds = %50
  %58 = load ptr, ptr %5, align 8, !tbaa !4
  %59 = getelementptr inbounds nuw %struct.jit_State, ptr %58, i32 0, i32 40
  %60 = getelementptr inbounds [101 x i16], ptr %59, i64 0, i64 83
  %61 = load i16, ptr %60, align 2, !tbaa !35
  %62 = zext i16 %61 to i32
  %63 = icmp ne i32 %62, 0
  br i1 %63, label %92, label %64

64:                                               ; preds = %57
  %65 = load ptr, ptr %5, align 8, !tbaa !4
  %66 = getelementptr inbounds nuw %struct.jit_State, ptr %65, i32 0, i32 40
  %67 = getelementptr inbounds [101 x i16], ptr %66, i64 0, i64 84
  %68 = load i16, ptr %67, align 2, !tbaa !35
  %69 = zext i16 %68 to i32
  %70 = icmp ne i32 %69, 0
  br i1 %70, label %92, label %71

71:                                               ; preds = %64
  %72 = load ptr, ptr %5, align 8, !tbaa !4
  %73 = getelementptr inbounds nuw %struct.jit_State, ptr %72, i32 0, i32 40
  %74 = getelementptr inbounds [101 x i16], ptr %73, i64 0, i64 87
  %75 = load i16, ptr %74, align 2, !tbaa !35
  %76 = zext i16 %75 to i32
  %77 = icmp ne i32 %76, 0
  br i1 %77, label %92, label %78

78:                                               ; preds = %71
  %79 = load ptr, ptr %5, align 8, !tbaa !4
  %80 = getelementptr inbounds nuw %struct.jit_State, ptr %79, i32 0, i32 40
  %81 = getelementptr inbounds [101 x i16], ptr %80, i64 0, i64 93
  %82 = load i16, ptr %81, align 2, !tbaa !35
  %83 = zext i16 %82 to i32
  %84 = icmp ne i32 %83, 0
  br i1 %84, label %92, label %85

85:                                               ; preds = %78
  %86 = load ptr, ptr %5, align 8, !tbaa !4
  %87 = getelementptr inbounds nuw %struct.jit_State, ptr %86, i32 0, i32 40
  %88 = getelementptr inbounds [101 x i16], ptr %87, i64 0, i64 96
  %89 = load i16, ptr %88, align 2, !tbaa !35
  %90 = zext i16 %89 to i32
  %91 = icmp ne i32 %90, 0
  br i1 %91, label %92, label %95

92:                                               ; preds = %85, %78, %71, %64, %57, %50, %43, %36, %29
  %93 = load ptr, ptr %5, align 8, !tbaa !4
  %94 = call i32 @lj_ir_emit(ptr noundef %93)
  store i32 %94, ptr %4, align 4
  br label %124

95:                                               ; preds = %85, %21
  %96 = load ptr, ptr %5, align 8, !tbaa !4
  %97 = getelementptr inbounds nuw %struct.jit_State, ptr %96, i32 0, i32 14
  %98 = getelementptr inbounds nuw %struct.FoldState, ptr %97, i32 0, i32 0
  %99 = getelementptr inbounds nuw %struct.anon.0, ptr %98, i32 0, i32 1
  %100 = getelementptr inbounds nuw %struct.IRType1, ptr %99, i32 0, i32 0
  %101 = load i8, ptr %100, align 4, !tbaa !29
  %102 = zext i8 %101 to i32
  %103 = and i32 %102, 159
  %104 = icmp eq i32 %103, 137
  br i1 %104, label %105, label %121

105:                                              ; preds = %95
  %106 = load ptr, ptr %7, align 8, !tbaa !38
  %107 = getelementptr inbounds nuw %struct.anon.0, ptr %106, i32 0, i32 1
  %108 = getelementptr inbounds nuw %struct.IRType1, ptr %107, i32 0, i32 0
  %109 = load i8, ptr %108, align 4, !tbaa !29
  %110 = zext i8 %109 to i32
  %111 = and i32 %110, 31
  %112 = icmp eq i32 %111, 21
  br i1 %112, label %113, label %121

113:                                              ; preds = %105
  %114 = load ptr, ptr %7, align 8, !tbaa !38
  %115 = getelementptr inbounds nuw %struct.anon.0, ptr %114, i32 0, i32 1
  %116 = getelementptr inbounds nuw %struct.IRType1, ptr %115, i32 0, i32 0
  %117 = load i8, ptr %116, align 4, !tbaa !29
  %118 = zext i8 %117 to i32
  %119 = add nsw i32 %118, -12
  %120 = trunc i32 %119 to i8
  store i8 %120, ptr %116, align 4, !tbaa !29
  br label %121

121:                                              ; preds = %113, %105, %95
  br label %122

122:                                              ; preds = %121, %13, %3
  %123 = load i32, ptr %6, align 4, !tbaa !30
  store i32 %123, ptr %4, align 4
  br label %124

124:                                              ; preds = %122, %92
  %125 = load i32, ptr %4, align 4
  ret i32 %125
}

; Function Attrs: nounwind uwtable
define internal i32 @fold_cse_uref(ptr noundef %0) #0 {
  %2 = alloca i32, align 4
  %3 = alloca ptr, align 8
  %4 = alloca i32, align 4
  %5 = alloca ptr, align 8
  %6 = alloca ptr, align 8
  %7 = alloca ptr, align 8
  %8 = alloca ptr, align 8
  %9 = alloca i32, align 4
  store ptr %0, ptr %3, align 8, !tbaa !4
  %10 = load ptr, ptr %3, align 8, !tbaa !4
  %11 = getelementptr inbounds nuw %struct.jit_State, ptr %10, i32 0, i32 7
  %12 = load i32, ptr %11, align 8, !tbaa !9
  %13 = and i32 %12, 131072
  %14 = icmp ne i32 %13, 0
  %15 = xor i1 %14, true
  %16 = xor i1 %15, true
  %17 = zext i1 %16 to i32
  %18 = sext i32 %17 to i64
  %19 = call i64 @llvm.expect.i64(i64 %18, i64 1)
  %20 = icmp ne i64 %19, 0
  br i1 %20, label %21, label %119

21:                                               ; preds = %1
  call void @llvm.lifetime.start.p0(i64 4, ptr %4) #8
  %22 = load ptr, ptr %3, align 8, !tbaa !4
  %23 = getelementptr inbounds nuw %struct.jit_State, ptr %22, i32 0, i32 40
  %24 = load ptr, ptr %3, align 8, !tbaa !4
  %25 = getelementptr inbounds nuw %struct.jit_State, ptr %24, i32 0, i32 14
  %26 = getelementptr inbounds nuw %struct.FoldState, ptr %25, i32 0, i32 0
  %27 = getelementptr inbounds nuw %struct.anon.0, ptr %26, i32 0, i32 2
  %28 = load i8, ptr %27, align 1, !tbaa !29
  %29 = zext i8 %28 to i64
  %30 = getelementptr inbounds nuw [101 x i16], ptr %23, i64 0, i64 %29
  %31 = load i16, ptr %30, align 2, !tbaa !35
  %32 = zext i16 %31 to i32
  store i32 %32, ptr %4, align 4, !tbaa !30
  call void @llvm.lifetime.start.p0(i64 8, ptr %5) #8
  %33 = load ptr, ptr %3, align 8, !tbaa !4
  %34 = getelementptr inbounds nuw %struct.jit_State, ptr %33, i32 0, i32 14
  %35 = getelementptr inbounds nuw %struct.FoldState, ptr %34, i32 0, i32 1
  %36 = getelementptr inbounds [2 x %union.IRIns], ptr %35, i64 0, i64 1
  %37 = getelementptr inbounds nuw %struct.GCRef, ptr %36, i32 0, i32 0
  %38 = load i64, ptr %37, align 8, !tbaa !29
  %39 = inttoptr i64 %38 to ptr
  store ptr %39, ptr %5, align 8, !tbaa !86
  call void @llvm.lifetime.start.p0(i64 8, ptr %6) #8
  %40 = load ptr, ptr %5, align 8, !tbaa !86
  %41 = getelementptr inbounds nuw %struct.GCfuncL, ptr %40, i32 0, i32 8
  %42 = load ptr, ptr %3, align 8, !tbaa !4
  %43 = getelementptr inbounds nuw %struct.jit_State, ptr %42, i32 0, i32 14
  %44 = getelementptr inbounds nuw %struct.FoldState, ptr %43, i32 0, i32 0
  %45 = getelementptr inbounds nuw %struct.anon, ptr %44, i32 0, i32 1
  %46 = load i16, ptr %45, align 2, !tbaa !29
  %47 = zext i16 %46 to i32
  %48 = ashr i32 %47, 8
  %49 = sext i32 %48 to i64
  %50 = getelementptr inbounds [1 x %struct.GCRef], ptr %41, i64 0, i64 %49
  %51 = getelementptr inbounds nuw %struct.GCRef, ptr %50, i32 0, i32 0
  %52 = load i64, ptr %51, align 8, !tbaa !29
  %53 = inttoptr i64 %52 to ptr
  store ptr %53, ptr %6, align 8, !tbaa !87
  br label %54

54:                                               ; preds = %114, %21
  %55 = load i32, ptr %4, align 4, !tbaa !30
  %56 = icmp ugt i32 %55, 0
  br i1 %56, label %57, label %115

57:                                               ; preds = %54
  call void @llvm.lifetime.start.p0(i64 8, ptr %7) #8
  %58 = load ptr, ptr %3, align 8, !tbaa !4
  %59 = getelementptr inbounds nuw %struct.jit_State, ptr %58, i32 0, i32 0
  %60 = getelementptr inbounds nuw %struct.GCtrace, ptr %59, i32 0, i32 7
  %61 = load ptr, ptr %60, align 8, !tbaa !32
  %62 = load i32, ptr %4, align 4, !tbaa !30
  %63 = zext i32 %62 to i64
  %64 = getelementptr inbounds nuw %union.IRIns, ptr %61, i64 %63
  store ptr %64, ptr %7, align 8, !tbaa !38
  %65 = load ptr, ptr %7, align 8, !tbaa !38
  %66 = getelementptr inbounds nuw %struct.anon, ptr %65, i32 0, i32 0
  %67 = load i16, ptr %66, align 8, !tbaa !29
  %68 = zext i16 %67 to i32
  %69 = icmp slt i32 %68, 32768
  br i1 %69, label %70, label %107

70:                                               ; preds = %57
  call void @llvm.lifetime.start.p0(i64 8, ptr %8) #8
  %71 = load ptr, ptr %3, align 8, !tbaa !4
  %72 = getelementptr inbounds nuw %struct.jit_State, ptr %71, i32 0, i32 0
  %73 = getelementptr inbounds nuw %struct.GCtrace, ptr %72, i32 0, i32 7
  %74 = load ptr, ptr %73, align 8, !tbaa !32
  %75 = load ptr, ptr %7, align 8, !tbaa !38
  %76 = getelementptr inbounds nuw %struct.anon, ptr %75, i32 0, i32 0
  %77 = load i16, ptr %76, align 8, !tbaa !29
  %78 = zext i16 %77 to i64
  %79 = getelementptr inbounds nuw %union.IRIns, ptr %74, i64 %78
  %80 = getelementptr inbounds %union.IRIns, ptr %79, i64 1
  %81 = getelementptr inbounds nuw %struct.GCRef, ptr %80, i32 0, i32 0
  %82 = load i64, ptr %81, align 8, !tbaa !29
  %83 = inttoptr i64 %82 to ptr
  store ptr %83, ptr %8, align 8, !tbaa !86
  %84 = load ptr, ptr %8, align 8, !tbaa !86
  %85 = getelementptr inbounds nuw %struct.GCfuncL, ptr %84, i32 0, i32 8
  %86 = load ptr, ptr %7, align 8, !tbaa !38
  %87 = getelementptr inbounds nuw %struct.anon, ptr %86, i32 0, i32 1
  %88 = load i16, ptr %87, align 2, !tbaa !29
  %89 = zext i16 %88 to i32
  %90 = ashr i32 %89, 8
  %91 = sext i32 %90 to i64
  %92 = getelementptr inbounds [1 x %struct.GCRef], ptr %85, i64 0, i64 %91
  %93 = getelementptr inbounds nuw %struct.GCRef, ptr %92, i32 0, i32 0
  %94 = load i64, ptr %93, align 8, !tbaa !29
  %95 = inttoptr i64 %94 to ptr
  %96 = load ptr, ptr %6, align 8, !tbaa !87
  %97 = icmp eq ptr %95, %96
  br i1 %97, label %98, label %103

98:                                               ; preds = %70
  %99 = load ptr, ptr %3, align 8, !tbaa !4
  %100 = load i32, ptr %4, align 4, !tbaa !30
  %101 = load ptr, ptr %7, align 8, !tbaa !38
  %102 = call i32 @merge_uref(ptr noundef %99, i32 noundef %100, ptr noundef %101)
  store i32 %102, ptr %2, align 4
  store i32 1, ptr %9, align 4
  br label %104

103:                                              ; preds = %70
  store i32 0, ptr %9, align 4
  br label %104

104:                                              ; preds = %103, %98
  call void @llvm.lifetime.end.p0(i64 8, ptr %8) #8
  %105 = load i32, ptr %9, align 4
  switch i32 %105, label %112 [
    i32 0, label %106
  ]

106:                                              ; preds = %104
  br label %107

107:                                              ; preds = %106, %57
  %108 = load ptr, ptr %7, align 8, !tbaa !38
  %109 = getelementptr inbounds nuw %struct.anon, ptr %108, i32 0, i32 3
  %110 = load i16, ptr %109, align 2, !tbaa !29
  %111 = zext i16 %110 to i32
  store i32 %111, ptr %4, align 4, !tbaa !30
  store i32 0, ptr %9, align 4
  br label %112

112:                                              ; preds = %107, %104
  call void @llvm.lifetime.end.p0(i64 8, ptr %7) #8
  %113 = load i32, ptr %9, align 4
  switch i32 %113, label %116 [
    i32 0, label %114
  ]

114:                                              ; preds = %112
  br label %54, !llvm.loop !89

115:                                              ; preds = %54
  store i32 0, ptr %9, align 4
  br label %116

116:                                              ; preds = %115, %112
  call void @llvm.lifetime.end.p0(i64 8, ptr %6) #8
  call void @llvm.lifetime.end.p0(i64 8, ptr %5) #8
  call void @llvm.lifetime.end.p0(i64 4, ptr %4) #8
  %117 = load i32, ptr %9, align 4
  switch i32 %117, label %124 [
    i32 0, label %118
    i32 1, label %122
  ]

118:                                              ; preds = %116
  br label %119

119:                                              ; preds = %118, %1
  %120 = load ptr, ptr %3, align 8, !tbaa !4
  %121 = call i32 @lj_ir_emit(ptr noundef %120)
  store i32 %121, ptr %2, align 4
  br label %122

122:                                              ; preds = %119, %116
  %123 = load i32, ptr %2, align 4
  ret i32 %123

124:                                              ; preds = %116
  unreachable
}