; Function Attrs: nounwind uwtable
define internal i32 @fold_cse_uref(ptr noundef %0) #0 {
  %2 = getelementptr inbounds nuw i8, ptr %0, i64 168
  %3 = load i32, ptr %2, align 8, !tbaa !4
  %4 = and i32 %3, 131072
  %.not = icmp eq i32 %4, 0
  br i1 %.not, label %.thread35, label %5, !prof !33

5:                                                ; preds = %1
  %6 = getelementptr inbounds nuw i8, ptr %0, i64 402
  %7 = getelementptr inbounds nuw i8, ptr %0, i64 189
  %8 = load i8, ptr %7, align 1, !tbaa !28
  %9 = zext i8 %8 to i64
  %10 = getelementptr inbounds nuw [101 x i16], ptr %6, i64 0, i64 %9
  %11 = getelementptr inbounds nuw i8, ptr %0, i64 200
  %12 = load i64, ptr %11, align 8, !tbaa !28
  %13 = inttoptr i64 %12 to ptr
  %14 = getelementptr inbounds nuw i8, ptr %13, i64 40
  %15 = getelementptr inbounds nuw i8, ptr %0, i64 186
  %16 = load i16, ptr %15, align 2, !tbaa !28
  %17 = lshr i16 %16, 8
  %18 = zext nneg i16 %17 to i64
  %19 = getelementptr inbounds nuw [1 x %struct.GCRef], ptr %14, i64 0, i64 %18
  %20 = load i64, ptr %19, align 8, !tbaa !28
  %.027.in40 = load i16, ptr %10, align 2, !tbaa !28
  %.not29.not41 = icmp eq i16 %.027.in40, 0
  br i1 %.not29.not41, label %.thread35, label %.lr.ph

.lr.ph:                                           ; preds = %5
  %21 = getelementptr inbounds nuw i8, ptr %0, i64 32
  %22 = load ptr, ptr %21, align 8, !tbaa !30
  %invariant.gep = getelementptr inbounds nuw i8, ptr %22, i64 8
  br label %23

23:                                               ; preds = %.lr.ph, %88
  %.027.in42 = phi i16 [ %.027.in40, %.lr.ph ], [ %.027.in, %88 ]
  %24 = zext i16 %.027.in42 to i64
  %25 = getelementptr inbounds nuw %union.IRIns, ptr %22, i64 %24
  %26 = load i16, ptr %25, align 8, !tbaa !28
  %27 = icmp sgt i16 %26, -1
  br i1 %27, label %28, label %88

28:                                               ; preds = %23
  %29 = zext nneg i16 %26 to i64
  %gep = getelementptr inbounds nuw %union.IRIns, ptr %invariant.gep, i64 %29
  %30 = load i64, ptr %gep, align 8, !tbaa !28
  %31 = inttoptr i64 %30 to ptr
  %32 = getelementptr inbounds nuw i8, ptr %31, i64 40
  %33 = getelementptr inbounds nuw i8, ptr %25, i64 2
  %34 = load i16, ptr %33, align 2, !tbaa !28
  %35 = lshr i16 %34, 8
  %36 = zext nneg i16 %35 to i64
  %37 = getelementptr inbounds nuw [1 x %struct.GCRef], ptr %32, i64 0, i64 %36
  %38 = load i64, ptr %37, align 8, !tbaa !28
  %.not30 = icmp eq i64 %38, %20
  br i1 %.not30, label %39, label %88

39:                                               ; preds = %28
  %.027.le = zext i16 %.027.in42 to i32
  %40 = getelementptr inbounds nuw i8, ptr %25, i64 5
  %41 = load i8, ptr %40, align 1, !tbaa !28
  %42 = icmp eq i8 %41, 60
  br i1 %42, label %43, label %91

43:                                               ; preds = %39
  %44 = getelementptr inbounds nuw i8, ptr %25, i64 4
  %45 = load i8, ptr %44, align 4, !tbaa !28
  %.not.i = icmp sgt i8 %45, -1
  br i1 %.not.i, label %91, label %46

46:                                               ; preds = %43
  %47 = getelementptr inbounds nuw i8, ptr %0, i64 436
  %48 = load i16, ptr %47, align 2, !tbaa !38
  %49 = icmp ult i16 %.027.in42, %48
  br i1 %49, label %50, label %79

50:                                               ; preds = %46
  %51 = getelementptr inbounds nuw i8, ptr %0, i64 560
  %52 = load i16, ptr %51, align 2, !tbaa !38
  %.not18.i = icmp eq i16 %52, 0
  br i1 %.not18.i, label %53, label %77

53:                                               ; preds = %50
  %54 = getelementptr inbounds nuw i8, ptr %0, i64 562
  %55 = load i16, ptr %54, align 2, !tbaa !38
  %.not19.i = icmp eq i16 %55, 0
  br i1 %.not19.i, label %56, label %77

56:                                               ; preds = %53
  %57 = getelementptr inbounds nuw i8, ptr %0, i64 564
  %58 = load i16, ptr %57, align 2, !tbaa !38
  %.not20.i = icmp eq i16 %58, 0
  br i1 %.not20.i, label %59, label %77

59:                                               ; preds = %56
  %60 = getelementptr inbounds nuw i8, ptr %0, i64 566
  %61 = load i16, ptr %60, align 2, !tbaa !38
  %.not21.i = icmp eq i16 %61, 0
  br i1 %.not21.i, label %62, label %77

62:                                               ; preds = %59
  %63 = getelementptr inbounds nuw i8, ptr %0, i64 568
  %64 = load i16, ptr %63, align 2, !tbaa !38
  %.not22.i = icmp eq i16 %64, 0
  br i1 %.not22.i, label %65, label %77

65:                                               ; preds = %62
  %66 = getelementptr inbounds nuw i8, ptr %0, i64 570
  %67 = load i16, ptr %66, align 2, !tbaa !38
  %.not23.i = icmp eq i16 %67, 0
  br i1 %.not23.i, label %68, label %77

68:                                               ; preds = %65
  %69 = getelementptr inbounds nuw i8, ptr %0, i64 576
  %70 = load i16, ptr %69, align 2, !tbaa !38
  %.not24.i = icmp eq i16 %70, 0
  br i1 %.not24.i, label %71, label %77

71:                                               ; preds = %68
  %72 = getelementptr inbounds nuw i8, ptr %0, i64 588
  %73 = load i16, ptr %72, align 2, !tbaa !38
  %.not25.i = icmp eq i16 %73, 0
  br i1 %.not25.i, label %74, label %77

74:                                               ; preds = %71
  %75 = getelementptr inbounds nuw i8, ptr %0, i64 594
  %76 = load i16, ptr %75, align 2, !tbaa !38
  %.not26.i = icmp eq i16 %76, 0
  br i1 %.not26.i, label %79, label %77

77:                                               ; preds = %74, %71, %68, %65, %62, %59, %56, %53, %50
  %78 = tail call i32 @lj_ir_emit(ptr noundef nonnull %0) #12
  br label %91

79:                                               ; preds = %74, %46
  %80 = getelementptr inbounds nuw i8, ptr %0, i64 188
  %81 = load i8, ptr %80, align 4, !tbaa !28
  %82 = and i8 %81, -97
  %83 = icmp eq i8 %82, -119
  %84 = and i8 %45, 31
  %85 = icmp eq i8 %84, 21
  %or.cond.i = and i1 %85, %83
  br i1 %or.cond.i, label %86, label %91

86:                                               ; preds = %79
  %87 = add nsw i8 %45, -12
  store i8 %87, ptr %44, align 4, !tbaa !28
  br label %91

88:                                               ; preds = %23, %28
  %89 = getelementptr inbounds nuw i8, ptr %25, i64 6
  %.027.in = load i16, ptr %89, align 2, !tbaa !28
  %.not29.not = icmp eq i16 %.027.in, 0
  br i1 %.not29.not, label %.thread35, label %23, !llvm.loop !81

.thread35:                                        ; preds = %88, %5, %1
  %90 = tail call i32 @lj_ir_emit(ptr noundef nonnull %0) #12
  br label %91

91:                                               ; preds = %39, %43, %77, %79, %86, %.thread35
  %.5 = phi i32 [ %90, %.thread35 ], [ %.027.le, %39 ], [ %.027.le, %43 ], [ %.027.le, %86 ], [ %.027.le, %79 ], [ %78, %77 ]
  ret i32 %.5
}